; ModuleID = 'source-C-CXX/54/1124.cpp'
source_filename = "source-C-CXX/54/1124.cpp"
target datalayout = "e-m:e-p270:32:32-p271:32:32-p272:64:64-i64:64-f80:128-n8:16:32:64-S128"
target triple = "x86_64-pc-linux-gnu"

%"class.std::ios_base::Init" = type { i8 }
%"class.std::basic_istream" = type { i32 (...)**, i64, %"class.std::basic_ios" }
%"class.std::basic_ios" = type { %"class.std::ios_base", %"class.std::basic_ostream"*, i8, i8, %"class.std::basic_streambuf"*, %"class.std::ctype"*, %"class.std::num_put"*, %"class.std::num_get"* }
%"class.std::ios_base" = type { i32 (...)**, i64, i64, i32, i32, i32, %"struct.std::ios_base::_Callback_list"*, %"struct.std::ios_base::_Words", [8 x %"struct.std::ios_base::_Words"], i32, %"struct.std::ios_base::_Words"*, %"class.std::locale" }
%"struct.std::ios_base::_Callback_list" = type { %"struct.std::ios_base::_Callback_list"*, void (i32, %"class.std::ios_base"*, i32)*, i32, i32 }
%"struct.std::ios_base::_Words" = type { i8*, i64 }
%"class.std::locale" = type { %"class.std::locale::_Impl"* }
%"class.std::locale::_Impl" = type { i32, %"class.std::locale::facet"**, i64, %"class.std::locale::facet"**, i8** }
%"class.std::locale::facet" = type <{ i32 (...)**, i32, [4 x i8] }>
%"class.std::basic_ostream" = type { i32 (...)**, %"class.std::basic_ios" }
%"class.std::basic_streambuf" = type { i32 (...)**, i8*, i8*, i8*, i8*, i8*, i8*, %"class.std::locale" }
%"class.std::ctype" = type <{ %"class.std::locale::facet.base", [4 x i8], %struct.__locale_struct*, i8, [7 x i8], i32*, i32*, i16*, i8, [256 x i8], [256 x i8], i8, [6 x i8] }>
%"class.std::locale::facet.base" = type <{ i32 (...)**, i32 }>
%struct.__locale_struct = type { [13 x %struct.__locale_data*], i16*, i32*, i32*, [13 x i8*] }
%struct.__locale_data = type opaque
%"class.std::num_put" = type { %"class.std::locale::facet.base", [4 x i8] }
%"class.std::num_get" = type { %"class.std::locale::facet.base", [4 x i8] }

@_ZStL8__ioinit = internal global %"class.std::ios_base::Init" zeroinitializer, align 1
@__dso_handle = external hidden global i8
@_ZSt3cin = external global %"class.std::basic_istream", align 8
@_ZSt4cout = external global %"class.std::basic_ostream", align 8
@llvm.global_ctors = appending global [1 x { i32, void ()*, i8* }] [{ i32, void ()*, i8* } { i32 65535, void ()* @_GLOBAL__sub_I_1124.cpp, i8* null }]

declare void @_ZNSt8ios_base4InitC1Ev(%"class.std::ios_base::Init"* nonnull align 1 dereferenceable(1)) unnamed_addr #0

; Function Attrs: nounwind
declare void @_ZNSt8ios_base4InitD1Ev(%"class.std::ios_base::Init"* nonnull align 1 dereferenceable(1)) unnamed_addr #1

; Function Attrs: nofree nounwind
declare i32 @__cxa_atexit(void (i8*)*, i8*, i8*) local_unnamed_addr #2

; Function Attrs: mustprogress norecurse sspstrong uwtable
define dso_local i32 @main() local_unnamed_addr #3 {
  %1 = alloca i8, align 1
  %2 = alloca x86_fp80, align 16
  %3 = alloca [256 x i8], align 16
  %4 = alloca [256 x i8], align 16
  %5 = alloca i64, align 8
  %6 = bitcast x86_fp80* %2 to i8*
  call void @llvm.lifetime.start.p0i8(i64 16, i8* nonnull %6) #9
  %7 = getelementptr inbounds [256 x i8], [256 x i8]* %3, i64 0, i64 0
  call void @llvm.lifetime.start.p0i8(i64 256, i8* nonnull %7) #9
  %8 = getelementptr inbounds [256 x i8], [256 x i8]* %4, i64 0, i64 0
  call void @llvm.lifetime.start.p0i8(i64 256, i8* nonnull %8) #9
  %9 = bitcast i64* %5 to i8*
  call void @llvm.lifetime.start.p0i8(i64 8, i8* nonnull %9) #9
  %10 = call nonnull align 8 dereferenceable(16) %"class.std::basic_istream"* @_ZNSi10_M_extractIeEERSiRT_(%"class.std::basic_istream"* nonnull align 8 dereferenceable(16) @_ZSt3cin, x86_fp80* nonnull align 16 dereferenceable(16) %2)
  call void @_ZSt17__istream_extractRSiPcl(%"class.std::basic_istream"* nonnull align 8 dereferenceable(16) %10, i8* nonnull %7, i64 256)
  %11 = call nonnull align 8 dereferenceable(16) %"class.std::basic_istream"* @_ZNSi10_M_extractIlEERSiRT_(%"class.std::basic_istream"* nonnull align 8 dereferenceable(16) %10, i64* nonnull align 8 dereferenceable(8) %5)
  %12 = call i64 @strlen(i8* noundef nonnull %7) #10
  %13 = uitofp i64 %12 to x86_fp80
  %14 = icmp eq i64 %12, 0
  br i1 %14, label %15, label %18

15:                                               ; preds = %18, %0
  %16 = phi i64 [ 0, %0 ], [ %45, %18 ]
  %17 = load i64, i64* %5, align 8
  br label %49

18:                                               ; preds = %0, %18
  %19 = phi x86_fp80 [ %47, %18 ], [ 0xK00000000000000000000, %0 ]
  %20 = phi i64 [ %45, %18 ], [ 0, %0 ]
  %21 = phi i64 [ %46, %18 ], [ 0, %0 ]
  %22 = getelementptr inbounds [256 x i8], [256 x i8]* %3, i64 0, i64 %21
  %23 = load i8, i8* %22, align 1, !tbaa !5
  %24 = sext i8 %23 to i64
  %25 = add i8 %23, -48
  %26 = icmp ult i8 %25, 10
  %27 = add nsw i64 %24, -48
  %28 = select i1 %26, i64 %27, i64 %24
  %29 = add nsw i64 %28, -97
  %30 = icmp ult i64 %29, 26
  %31 = add nsw i64 %28, -87
  %32 = select i1 %30, i64 %31, i64 %28
  %33 = add nsw i64 %32, -65
  %34 = icmp ult i64 %33, 26
  %35 = add nsw i64 %32, -55
  %36 = select i1 %34, i64 %35, i64 %32
  %37 = sitofp i64 %20 to x86_fp80
  %38 = sitofp i64 %36 to x86_fp80
  %39 = load x86_fp80, x86_fp80* %2, align 16, !tbaa !8
  %40 = fsub x86_fp80 %13, %19
  %41 = fadd x86_fp80 %40, 0xKBFFF8000000000000000
  %42 = call x86_fp80 @powl(x86_fp80 %39, x86_fp80 %41) #9
  %43 = fmul x86_fp80 %42, %38
  %44 = fadd x86_fp80 %43, %37
  %45 = fptosi x86_fp80 %44 to i64
  %46 = add nuw nsw i64 %21, 1
  %47 = sitofp i64 %46 to x86_fp80
  %48 = fcmp olt x86_fp80 %47, %13
  br i1 %48, label %18, label %15, !llvm.loop !10

49:                                               ; preds = %15, %62
  %50 = phi i64 [ %16, %15 ], [ %53, %62 ]
  %51 = phi i64 [ 0, %15 ], [ %63, %62 ]
  %52 = sdiv i64 %50, %17
  %53 = call i64 @llvm.abs.i64(i64 %52, i1 true) #9
  %54 = mul nsw i64 %53, %17
  %55 = sub nsw i64 %50, %54
  %56 = icmp slt i64 %55, 10
  %57 = trunc i64 %55 to i8
  %58 = select i1 %56, i8 48, i8 55
  %59 = add i8 %58, %57
  %60 = getelementptr inbounds [256 x i8], [256 x i8]* %4, i64 0, i64 %51
  store i8 %59, i8* %60, align 1
  %61 = icmp eq i64 %52, 0
  br i1 %61, label %65, label %62

62:                                               ; preds = %49
  %63 = add nuw nsw i64 %51, 1
  %64 = icmp eq i64 %63, 257
  br i1 %64, label %65, label %49, !llvm.loop !12

65:                                               ; preds = %62, %49
  %66 = phi i64 [ 257, %62 ], [ %51, %49 ]
  br label %67

67:                                               ; preds = %65, %67
  %68 = phi i64 [ %72, %67 ], [ %66, %65 ]
  %69 = getelementptr inbounds [256 x i8], [256 x i8]* %4, i64 0, i64 %68
  %70 = load i8, i8* %69, align 1, !tbaa !5
  call void @llvm.lifetime.start.p0i8(i64 1, i8* nonnull %1)
  store i8 %70, i8* %1, align 1, !tbaa !5
  %71 = call nonnull align 8 dereferenceable(8) %"class.std::basic_ostream"* @_ZSt16__ostream_insertIcSt11char_traitsIcEERSt13basic_ostreamIT_T0_ES6_PKS3_l(%"class.std::basic_ostream"* nonnull align 8 dereferenceable(8) @_ZSt4cout, i8* nonnull %1, i64 1)
  call void @llvm.lifetime.end.p0i8(i64 1, i8* nonnull %1)
  %72 = add nsw i64 %68, -1
  %73 = icmp sgt i64 %68, 0
  br i1 %73, label %67, label %74, !llvm.loop !13

74:                                               ; preds = %67
  call void @llvm.lifetime.end.p0i8(i64 8, i8* nonnull %9) #9
  call void @llvm.lifetime.end.p0i8(i64 256, i8* nonnull %8) #9
  call void @llvm.lifetime.end.p0i8(i64 256, i8* nonnull %7) #9
  call void @llvm.lifetime.end.p0i8(i64 16, i8* nonnull %6) #9
  ret i32 0
}

; Function Attrs: argmemonly mustprogress nofree nosync nounwind willreturn
declare void @llvm.lifetime.start.p0i8(i64 immarg, i8* nocapture) #4

; Function Attrs: argmemonly mustprogress nofree nounwind readonly willreturn
declare i64 @strlen(i8* nocapture) local_unnamed_addr #5

; Function Attrs: argmemonly mustprogress nofree nosync nounwind willreturn
declare void @llvm.lifetime.end.p0i8(i64 immarg, i8* nocapture) #4

; Function Attrs: mustprogress nofree nounwind willreturn
declare x86_fp80 @powl(x86_fp80, x86_fp80) local_unnamed_addr #6

declare nonnull align 8 dereferenceable(16) %"class.std::basic_istream"* @_ZNSi10_M_extractIeEERSiRT_(%"class.std::basic_istream"* nonnull align 8 dereferenceable(16), x86_fp80* nonnull align 16 dereferenceable(16)) local_unnamed_addr #0

declare void @_ZSt17__istream_extractRSiPcl(%"class.std::basic_istream"* nonnull align 8 dereferenceable(16), i8*, i64) local_unnamed_addr #0

declare nonnull align 8 dereferenceable(16) %"class.std::basic_istream"* @_ZNSi10_M_extractIlEERSiRT_(%"class.std::basic_istream"* nonnull align 8 dereferenceable(16), i64* nonnull align 8 dereferenceable(8)) local_unnamed_addr #0

declare nonnull align 8 dereferenceable(8) %"class.std::basic_ostream"* @_ZSt16__ostream_insertIcSt11char_traitsIcEERSt13basic_ostreamIT_T0_ES6_PKS3_l(%"class.std::basic_ostream"* nonnull align 8 dereferenceable(8), i8*, i64) local_unnamed_addr #0

; Function Attrs: sspstrong uwtable
define internal void @_GLOBAL__sub_I_1124.cpp() #7 section ".text.startup" {
  tail call void @_ZNSt8ios_base4InitC1Ev(%"class.std::ios_base::Init"* nonnull align 1 dereferenceable(1) @_ZStL8__ioinit)
  %1 = tail call i32 @__cxa_atexit(void (i8*)* bitcast (void (%"class.std::ios_base::Init"*)* @_ZNSt8ios_base4InitD1Ev to void (i8*)*), i8* getelementptr inbounds (%"class.std::ios_base::Init", %"class.std::ios_base::Init"* @_ZStL8__ioinit, i64 0, i32 0), i8* nonnull @__dso_handle) #9
  ret void
}

; Function Attrs: nofree nosync nounwind readnone speculatable willreturn
declare i64 @llvm.abs.i64(i64, i1 immarg) #8


!llvm.module.flags = !{!0, !1, !2, !3}
!llvm.ident = !{!4}

!0 = !{i32 1, !"wchar_size", i32 4}
!1 = !{i32 7, !"PIC Level", i32 2}
!2 = !{i32 7, !"PIE Level", i32 2}
!3 = !{i32 7, !"uwtable", i32 1}
!4 = !{!"clang version 13.0.0"}
!5 = !{!6, !6, i64 0}
!6 = !{!"omnipotent char", !7, i64 0}
!7 = !{!"Simple C++ TBAA"}
!8 = !{!9, !9, i64 0}
!9 = !{!"long double", !6, i64 0}
!10 = distinct !{!10, !11}
!11 = !{!"llvm.loop.mustprogress"}
!12 = distinct !{!12, !11}
!13 = distinct !{!13, !11}
